target datalayout = "e-m:e-p270:32:32-p271:32:32-p272:64:64-i64:64-i128:128-f80:128-n8:16:32:64-S128"
target triple = "x86_64-unknown-linux-gnu"

%struct.DOECap = type { ptr, i16, %struct.anon, %struct.anon.0, %struct.anon.1, ptr, ptr, i32, i32, i32, ptr, i16 }
%struct.anon = type { i8, i16 }
%struct.anon.0 = type { i8, i8, i8 }
%struct.anon.1 = type { i8, i8, i8, i8 }
%struct.DOEProtocol = type { i16, i8, ptr }
%struct.PCIDevice = type { %struct.DeviceState, i8, i8, ptr, ptr, ptr, ptr, ptr, i32, %struct.PCIReqIDCache, [64 x i8], [7 x %struct.PCIIORegion], %struct.AddressSpace, %struct.MemoryRegion, %struct.MemoryRegion, ptr, ptr, [3 x ptr], i8, i8, i32, i8, i32, ptr, ptr, ptr, ptr, ptr, ptr, %struct.MemoryRegion, %struct.MemoryRegion, %struct.MemoryRegion, ptr, i8, i32, i8, %struct.PCIExpressDevice, ptr, ptr, i32, i8, %struct.MemoryRegion, i32, ptr, ptr, ptr, ptr, ptr, i32 }
%struct.DeviceState = type { %struct.Object, ptr, ptr, i8, i8, i64, ptr, i32, i8, ptr, %struct.NamedGPIOListHead, %struct.NamedClockListHead, %struct.BusStateHead, i32, i32, i32, %struct.ResettableState, ptr, %struct.MemReentrancyGuard }
%struct.Object = type { ptr, ptr, ptr, i32, ptr }
%struct.NamedGPIOListHead = type { ptr }
%struct.NamedClockListHead = type { ptr }
%struct.BusStateHead = type { ptr }
%struct.ResettableState = type { i32, i8, i8 }
%struct.MemReentrancyGuard = type { i8 }
%struct.PCIReqIDCache = type { ptr, i32 }
%struct.PCIIORegion = type { i64, i64, i8, ptr, ptr }
%struct.AddressSpace = type { %struct.rcu_head, ptr, ptr, ptr, i32, i32, ptr, %union.anon, %union.anon.9 }
%struct.rcu_head = type { ptr, ptr }
%union.anon = type { %struct.QTailQLink }
%struct.QTailQLink = type { ptr, ptr }
%union.anon.9 = type { %struct.QTailQLink }
%struct.PCIExpressDevice = type { i8, i8, i8, i16, %struct.PCIEAERLog, i16, i16, i16, %struct.PCIESriovPF, %struct.PCIESriovVF }
%struct.PCIEAERLog = type { i16, i16, ptr }
%struct.PCIESriovPF = type { i16, [7 x i8], ptr, ptr }
%struct.PCIESriovVF = type { ptr, i16 }
%struct.MemoryRegion = type { %struct.Object, i8, i8, i8, i8, i8, i8, i8, i8, i8, i8, ptr, ptr, ptr, ptr, ptr, ptr, i32, i128, i64, ptr, i64, i8, i8, i8, i8, i8, ptr, i64, i32, %union.anon.10, %union.anon.11, %union.anon.12, ptr, i32, ptr, ptr, i8 }
%union.anon.10 = type { %struct.QTailQLink }
%union.anon.11 = type { %struct.QTailQLink }
%union.anon.12 = type { %struct.QTailQLink }

@.str = private unnamed_addr constant [49 x i8] c"doe_cap->protocol_num < PCI_DOE_PROTOCOL_NUM_MAX\00", align 1
@.str.1 = private unnamed_addr constant [26 x i8] c"../qemu/hw/pci/pcie_doe.c\00", align 1
@__PRETTY_FUNCTION__.pcie_doe_init = private unnamed_addr constant [84 x i8] c"void pcie_doe_init(PCIDevice *, DOECap *, uint16_t, DOEProtocol *, _Bool, uint16_t)\00", align 1

; Function Attrs: nounwind sspstrong uwtable
define internal void @pcie_doe_reset_mbox(ptr noundef %st) #0 {
entry:
  %st.addr = alloca ptr, align 8
  store ptr %st, ptr %st.addr, align 8
  %0 = load ptr, ptr %st.addr, align 8
  %read_mbox_idx = getelementptr inbounds %struct.DOECap, ptr %0, i32 0, i32 7
  store i32 0, ptr %read_mbox_idx, align 8
  %1 = load ptr, ptr %st.addr, align 8
  %read_mbox_len = getelementptr inbounds %struct.DOECap, ptr %1, i32 0, i32 8
  store i32 0, ptr %read_mbox_len, align 4
  %2 = load ptr, ptr %st.addr, align 8
  %write_mbox_len = getelementptr inbounds %struct.DOECap, ptr %2, i32 0, i32 9
  store i32 0, ptr %write_mbox_len, align 8
  %3 = load ptr, ptr %st.addr, align 8
  %read_mbox = getelementptr inbounds %struct.DOECap, ptr %3, i32 0, i32 6
  %4 = load ptr, ptr %read_mbox, align 8
  call void @llvm.memset.p0.i64(ptr align 4 %4, i8 0, i64 1048576, i1 false)
  %5 = load ptr, ptr %st.addr, align 8
  %write_mbox = getelementptr inbounds %struct.DOECap, ptr %5, i32 0, i32 5
  %6 = load ptr, ptr %write_mbox, align 8
  call void @llvm.memset.p0.i64(ptr align 4 %6, i8 0, i64 1048576, i1 false)
  ret void
}

; Function Attrs: nounwind sspstrong uwtable
define internal zeroext i1 @msi_present(ptr noundef %dev) #0 {
entry:
  %dev.addr = alloca ptr, align 8
  store ptr %dev, ptr %dev.addr, align 8
  %0 = load ptr, ptr %dev.addr, align 8
  %cap_present = getelementptr inbounds %struct.PCIDevice, ptr %0, i32 0, i32 20
  %1 = load i32, ptr %cap_present, align 4
  %and = and i32 %1, 1
  %tobool = icmp ne i32 %and, 0
  ret i1 %tobool
}

; Function Attrs: nounwind sspstrong uwtable
define dso_local void @pcie_doe_init(ptr noundef %dev, ptr noundef %doe_cap, i16 noundef zeroext %offset, ptr noundef %protocols, i1 noundef zeroext %intr, i16 noundef zeroext %vec) #0 {
entry:
  %dev.addr = alloca ptr, align 8
  %doe_cap.addr = alloca ptr, align 8
  %offset.addr = alloca i16, align 2
  %protocols.addr = alloca ptr, align 8
  %intr.addr = alloca i8, align 1
  %vec.addr = alloca i16, align 2
  store ptr %dev, ptr %dev.addr, align 8
  store ptr %doe_cap, ptr %doe_cap.addr, align 8
  store i16 %offset, ptr %offset.addr, align 2
  store ptr %protocols, ptr %protocols.addr, align 8
  %frombool = zext i1 %intr to i8
  store i8 %frombool, ptr %intr.addr, align 1
  store i16 %vec, ptr %vec.addr, align 2
  %0 = load ptr, ptr %dev.addr, align 8
  %1 = load i16, ptr %offset.addr, align 2
  call void @pcie_add_capability(ptr noundef %0, i16 noundef zeroext 46, i8 noundef zeroext 1, i16 noundef zeroext %1, i16 noundef zeroext 24)
  %2 = load ptr, ptr %dev.addr, align 8
  %3 = load ptr, ptr %doe_cap.addr, align 8
  %pdev = getelementptr inbounds %struct.DOECap, ptr %3, i32 0, i32 0
  store ptr %2, ptr %pdev, align 8
  %4 = load i16, ptr %offset.addr, align 2
  %5 = load ptr, ptr %doe_cap.addr, align 8
  %offset1 = getelementptr inbounds %struct.DOECap, ptr %5, i32 0, i32 1
  store i16 %4, ptr %offset1, align 8
  %6 = load i8, ptr %intr.addr, align 1
  %tobool = trunc i8 %6 to i1
  br i1 %tobool, label %land.lhs.true, label %if.end

land.lhs.true:                                    ; preds = %entry
  %7 = load ptr, ptr %dev.addr, align 8
  %call = call zeroext i1 @msi_present(ptr noundef %7)
  br i1 %call, label %if.then, label %lor.lhs.false

lor.lhs.false:                                    ; preds = %land.lhs.true
  %8 = load ptr, ptr %dev.addr, align 8
  %call2 = call i32 @msix_present(ptr noundef %8)
  %tobool3 = icmp ne i32 %call2, 0
  br i1 %tobool3, label %if.then, label %if.end

if.then:                                          ; preds = %lor.lhs.false, %land.lhs.true
  %9 = load i8, ptr %intr.addr, align 1
  %tobool4 = trunc i8 %9 to i1
  %10 = load ptr, ptr %doe_cap.addr, align 8
  %cap = getelementptr inbounds %struct.DOECap, ptr %10, i32 0, i32 2
  %intr5 = getelementptr inbounds %struct.anon, ptr %cap, i32 0, i32 0
  %frombool6 = zext i1 %tobool4 to i8
  store i8 %frombool6, ptr %intr5, align 2
  %11 = load i16, ptr %vec.addr, align 2
  %12 = load ptr, ptr %doe_cap.addr, align 8
  %cap7 = getelementptr inbounds %struct.DOECap, ptr %12, i32 0, i32 2
  %vec8 = getelementptr inbounds %struct.anon, ptr %cap7, i32 0, i32 1
  store i16 %11, ptr %vec8, align 2
  br label %if.end

if.end:                                           ; preds = %if.then, %lor.lhs.false, %entry
  %call9 = call noalias ptr @g_malloc0(i64 noundef 1048576) #6
  %13 = load ptr, ptr %doe_cap.addr, align 8
  %write_mbox = getelementptr inbounds %struct.DOECap, ptr %13, i32 0, i32 5
  store ptr %call9, ptr %write_mbox, align 8
  %call10 = call noalias ptr @g_malloc0(i64 noundef 1048576) #6
  %14 = load ptr, ptr %doe_cap.addr, align 8
  %read_mbox = getelementptr inbounds %struct.DOECap, ptr %14, i32 0, i32 6
  store ptr %call10, ptr %read_mbox, align 8
  %15 = load ptr, ptr %doe_cap.addr, align 8
  call void @pcie_doe_reset_mbox(ptr noundef %15)
  %16 = load ptr, ptr %protocols.addr, align 8
  %17 = load ptr, ptr %doe_cap.addr, align 8
  %protocols11 = getelementptr inbounds %struct.DOECap, ptr %17, i32 0, i32 10
  store ptr %16, ptr %protocols11, align 8
  br label %for.cond

for.cond:                                         ; preds = %for.inc, %if.end
  %18 = load ptr, ptr %protocols.addr, align 8
  %vendor_id = getelementptr inbounds %struct.DOEProtocol, ptr %18, i32 0, i32 0
  %19 = load i16, ptr %vendor_id, align 8
  %tobool12 = icmp ne i16 %19, 0
  br i1 %tobool12, label %for.body, label %for.end

for.body:                                         ; preds = %for.cond
  %20 = load ptr, ptr %doe_cap.addr, align 8
  %protocol_num = getelementptr inbounds %struct.DOECap, ptr %20, i32 0, i32 11
  %21 = load i16, ptr %protocol_num, align 8
  %inc = add i16 %21, 1
  store i16 %inc, ptr %protocol_num, align 8
  br label %for.inc

for.inc:                                          ; preds = %for.body
  %22 = load ptr, ptr %protocols.addr, align 8
  %incdec.ptr = getelementptr %struct.DOEProtocol, ptr %22, i32 1
  store ptr %incdec.ptr, ptr %protocols.addr, align 8
  br label %for.cond, !llvm.loop !5

for.end:                                          ; preds = %for.cond
  %23 = load ptr, ptr %doe_cap.addr, align 8
  %protocol_num13 = getelementptr inbounds %struct.DOECap, ptr %23, i32 0, i32 11
  %24 = load i16, ptr %protocol_num13, align 8
  %conv = zext i16 %24 to i32
  %cmp = icmp slt i32 %conv, 256
  br i1 %cmp, label %if.then15, label %if.else

if.then15:                                        ; preds = %for.end
  br label %if.end16

if.else:                                          ; preds = %for.end
  call void @__assert_fail(ptr noundef @.str, ptr noundef @.str.1, i32 noundef 114, ptr noundef @__PRETTY_FUNCTION__.pcie_doe_init) #7
  unreachable

if.end16:                                         ; preds = %if.then15
  %25 = load ptr, ptr %doe_cap.addr, align 8
  %protocol_num17 = getelementptr inbounds %struct.DOECap, ptr %25, i32 0, i32 11
  %26 = load i16, ptr %protocol_num17, align 8
  %inc18 = add i16 %26, 1
  store i16 %inc18, ptr %protocol_num17, align 8
  ret void
}