; Function Attrs: nounwind sspstrong uwtable
define dso_local void @pcie_doe_init(ptr noundef %dev, ptr noundef captures(none) initializes((0, 10), (24, 52), (56, 64)) %doe_cap, i16 noundef zeroext %offset, ptr noundef %protocols, i1 noundef zeroext %intr, i16 noundef zeroext %vec) local_unnamed_addr #0 {
entry:
  %frombool = zext i1 %intr to i8
  tail call void @pcie_add_capability(ptr noundef %dev, i16 noundef zeroext 46, i8 noundef zeroext 1, i16 noundef zeroext %offset, i16 noundef zeroext 24) #9
  store ptr %dev, ptr %doe_cap, align 8
  %offset1 = getelementptr inbounds nuw i8, ptr %doe_cap, i64 8
  store i16 %offset, ptr %offset1, align 8
  br i1 %intr, label %land.lhs.true, label %if.end

land.lhs.true:                                    ; preds = %entry
  %0 = getelementptr i8, ptr %dev, i64 1260
  %dev.val = load i32, ptr %0, align 4
  %and.i = and i32 %dev.val, 1
  %tobool.i.not = icmp eq i32 %and.i, 0
  br i1 %tobool.i.not, label %lor.lhs.false, label %if.then

lor.lhs.false:                                    ; preds = %land.lhs.true
  %call2 = tail call i32 @msix_present(ptr noundef nonnull %dev) #9
  %tobool3.not = icmp eq i32 %call2, 0
  br i1 %tobool3.not, label %if.end, label %if.then

if.then:                                          ; preds = %lor.lhs.false, %land.lhs.true
  %cap = getelementptr inbounds nuw i8, ptr %doe_cap, i64 10
  store i8 %frombool, ptr %cap, align 2
  %vec8 = getelementptr inbounds nuw i8, ptr %doe_cap, i64 12
  store i16 %vec, ptr %vec8, align 2
  br label %if.end

if.end:                                           ; preds = %if.then, %lor.lhs.false, %entry
  %call9 = tail call noalias dereferenceable_or_null(1048576) ptr @g_malloc0(i64 noundef 1048576) #10
  %write_mbox = getelementptr inbounds nuw i8, ptr %doe_cap, i64 24
  store ptr %call9, ptr %write_mbox, align 8
  %call10 = tail call noalias dereferenceable_or_null(1048576) ptr @g_malloc0(i64 noundef 1048576) #10
  %read_mbox = getelementptr inbounds nuw i8, ptr %doe_cap, i64 32
  store ptr %call10, ptr %read_mbox, align 8
  %read_mbox_idx.i = getelementptr inbounds nuw i8, ptr %doe_cap, i64 40
  store i32 0, ptr %read_mbox_idx.i, align 8
  %read_mbox_len.i = getelementptr inbounds nuw i8, ptr %doe_cap, i64 44
  store i32 0, ptr %read_mbox_len.i, align 4
  %write_mbox_len.i = getelementptr inbounds nuw i8, ptr %doe_cap, i64 48
  store i32 0, ptr %write_mbox_len.i, align 8
  tail call void @llvm.memset.p0.i64(ptr noundef nonnull align 4 dereferenceable(1048576) %call10, i8 0, i64 1048576, i1 false)
  %1 = load ptr, ptr %write_mbox, align 8
  tail call void @llvm.memset.p0.i64(ptr noundef nonnull align 4 dereferenceable(1048576) %1, i8 0, i64 1048576, i1 false)
  %protocols11 = getelementptr inbounds nuw i8, ptr %doe_cap, i64 56
  store ptr %protocols, ptr %protocols11, align 8
  %2 = load i16, ptr %protocols, align 8
  %tobool12.not18 = icmp eq i16 %2, 0
  %protocol_num13.phi.trans.insert = getelementptr inbounds nuw i8, ptr %doe_cap, i64 64
  %.pre = load i16, ptr %protocol_num13.phi.trans.insert, align 8
  br i1 %tobool12.not18, label %for.end, label %for.body

for.body:                                         ; preds = %if.end, %for.body
  %3 = phi i16 [ %inc, %for.body ], [ %.pre, %if.end ]
  %protocols.addr.019 = phi ptr [ %incdec.ptr, %for.body ], [ %protocols, %if.end ]
  %inc = add i16 %3, 1
  store i16 %inc, ptr %protocol_num13.phi.trans.insert, align 8
  %incdec.ptr = getelementptr i8, ptr %protocols.addr.019, i64 16
  %4 = load i16, ptr %incdec.ptr, align 8
  %tobool12.not = icmp eq i16 %4, 0
  br i1 %tobool12.not, label %for.end, label %for.body, !llvm.loop !5

for.end:                                          ; preds = %for.body, %if.end
  %5 = phi i16 [ %.pre, %if.end ], [ %inc, %for.body ]
  %cmp = icmp ult i16 %5, 256
  br i1 %cmp, label %if.end16, label %if.else

if.else:                                          ; preds = %for.end
  tail call void @__assert_fail(ptr noundef nonnull @.str, ptr noundef nonnull @.str.1, i32 noundef 114, ptr noundef nonnull @__PRETTY_FUNCTION__.pcie_doe_init) #11
  unreachable

if.end16:                                         ; preds = %for.end
  %protocol_num13 = getelementptr inbounds nuw i8, ptr %doe_cap, i64 64
  %inc18 = add nuw nsw i16 %5, 1
  store i16 %inc18, ptr %protocol_num13, align 8
  ret void
}